; Function Attrs: mustprogress nounwind uwtable
define hidden void @_ZN3mbp23datatype_project_pluginD2Ev(ptr noundef nonnull align 8 dereferenceable(152) initializes((0, 8)) %0) unnamed_addr #4 align 2 personality ptr @__gxx_personality_v0 {
  store ptr getelementptr inbounds nuw inrange(-16, 64) (i8, ptr @_ZTVN3mbp23datatype_project_pluginE, i64 16), ptr %0, align 8, !tbaa !12
  %2 = getelementptr inbounds nuw i8, ptr %0, i64 144
  %3 = load ptr, ptr %2, align 8, !tbaa !17
  %4 = icmp eq ptr %3, null
  br i1 %4, label %_Z7deallocIN3mbp23datatype_project_plugin3impEEvPT_.exit, label %5

5:                                                ; preds = %1
  tail call void @_ZN3mbp23datatype_project_plugin3impD2Ev(ptr noundef nonnull align 8 dereferenceable(64) %3) #20
  invoke void @_ZN6memory10deallocateEPv(ptr noundef nonnull %3)
          to label %_Z7deallocIN3mbp23datatype_project_plugin3impEEvPT_.exit unwind label %6

_Z7deallocIN3mbp23datatype_project_plugin3impEEvPT_.exit: ; preds = %1, %5
  tail call void @_ZN3mbp14project_pluginD2Ev(ptr noundef nonnull align 8 dereferenceable(144) %0) #20
  ret void

6:                                                ; preds = %5
  %7 = landingpad { ptr, i32 }
          catch ptr null
  %8 = extractvalue { ptr, i32 } %7, 0
  tail call void @__clang_call_terminate(ptr %8) #21
  unreachable
}